; ModuleID = '33/2825.c'
source_filename = "33/2825.c"
target datalayout = "e-m:e-p270:32:32-p271:32:32-p272:64:64-i64:64-f80:128-n8:16:32:64-S128"
target triple = "x86_64-pc-linux-gnu"

@.str = private unnamed_addr constant [3 x i8] c"%d\00", align 1
@.str.1 = private unnamed_addr constant [3 x i8] c"%s\00", align 1
@.str.2 = private unnamed_addr constant [2 x i8] c"A\00", align 1
@.str.3 = private unnamed_addr constant [2 x i8] c"T\00", align 1
@.str.4 = private unnamed_addr constant [2 x i8] c"G\00", align 1
@.str.5 = private unnamed_addr constant [2 x i8] c"C\00", align 1
@.str.6 = private unnamed_addr constant [2 x i8] zeroinitializer, align 1
@.str.7 = private unnamed_addr constant [4 x i8] c"%s\0A\00", align 1

; Function Attrs: noinline nounwind uwtable
define dso_local void @main() #0 {
  %1 = alloca i32, align 4
  %2 = alloca i32, align 4
  %3 = alloca i32, align 4
  %4 = alloca i32, align 4
  %5 = alloca i8*, align 8
  %6 = alloca [1000 x [300 x i8]], align 16
  %7 = alloca [300 x [5 x i8]], align 16
  %8 = call i32 (i8*, ...) @__isoc99_scanf(i8* getelementptr inbounds ([3 x i8], [3 x i8]* @.str, i64 0, i64 0), i32* %1)
  store i32 1, i32* %2, align 4
  br label %9

9:                                                ; preds = %19, %0
  %10 = load i32, i32* %2, align 4
  %11 = load i32, i32* %1, align 4
  %12 = icmp sle i32 %10, %11
  br i1 %12, label %13, label %22

13:                                               ; preds = %9
  %14 = load i32, i32* %2, align 4
  %15 = sext i32 %14 to i64
  %16 = getelementptr inbounds [1000 x [300 x i8]], [1000 x [300 x i8]]* %6, i64 0, i64 %15
  %17 = getelementptr inbounds [300 x i8], [300 x i8]* %16, i64 0, i64 0
  %18 = call i32 (i8*, ...) @__isoc99_scanf(i8* getelementptr inbounds ([3 x i8], [3 x i8]* @.str.1, i64 0, i64 0), i8* %17)
  br label %19

19:                                               ; preds = %13
  %20 = load i32, i32* %2, align 4
  %21 = add nsw i32 %20, 1
  store i32 %21, i32* %2, align 4
  br label %9

22:                                               ; preds = %9
  store i32 1, i32* %2, align 4
  br label %23

23:                                               ; preds = %114, %22
  %24 = load i32, i32* %2, align 4
  %25 = load i32, i32* %1, align 4
  %26 = icmp sle i32 %24, %25
  br i1 %26, label %27, label %117

27:                                               ; preds = %23
  %28 = load i32, i32* %2, align 4
  %29 = sext i32 %28 to i64
  %30 = getelementptr inbounds [1000 x [300 x i8]], [1000 x [300 x i8]]* %6, i64 0, i64 %29
  %31 = getelementptr inbounds [300 x i8], [300 x i8]* %30, i64 0, i64 0
  %32 = call i64 @strlen(i8* %31) #4
  %33 = trunc i64 %32 to i32
  store i32 %33, i32* %4, align 4
  %34 = load i32, i32* %4, align 4
  %35 = sub nsw i32 %34, 1
  store i32 %35, i32* %3, align 4
  br label %36

36:                                               ; preds = %89, %27
  %37 = load i32, i32* %3, align 4
  %38 = icmp sge i32 %37, 0
  br i1 %38, label %39, label %92

39:                                               ; preds = %36
  %40 = load i32, i32* %2, align 4
  %41 = sext i32 %40 to i64
  %42 = getelementptr inbounds [1000 x [300 x i8]], [1000 x [300 x i8]]* %6, i64 0, i64 %41
  %43 = getelementptr inbounds [300 x i8], [300 x i8]* %42, i64 0, i64 0
  %44 = load i32, i32* %3, align 4
  %45 = sext i32 %44 to i64
  %46 = getelementptr inbounds i8, i8* %43, i64 %45
  store i8* %46, i8** %5, align 8
  %47 = load i8*, i8** %5, align 8
  %48 = call i32 @strcmp(i8* %47, i8* getelementptr inbounds ([2 x i8], [2 x i8]* @.str.2, i64 0, i64 0)) #4
  %49 = icmp eq i32 %48, 0
  br i1 %49, label %50, label %56

50:                                               ; preds = %39
  %51 = load i32, i32* %3, align 4
  %52 = sext i32 %51 to i64
  %53 = getelementptr inbounds [300 x [5 x i8]], [300 x [5 x i8]]* %7, i64 0, i64 %52
  %54 = getelementptr inbounds [5 x i8], [5 x i8]* %53, i64 0, i64 0
  %55 = call i8* @strcpy(i8* %54, i8* getelementptr inbounds ([2 x i8], [2 x i8]* @.str.3, i64 0, i64 0)) #5
  br label %56

56:                                               ; preds = %50, %39
  %57 = load i8*, i8** %5, align 8
  %58 = call i32 @strcmp(i8* %57, i8* getelementptr inbounds ([2 x i8], [2 x i8]* @.str.4, i64 0, i64 0)) #4
  %59 = icmp eq i32 %58, 0
  br i1 %59, label %60, label %66

60:                                               ; preds = %56
  %61 = load i32, i32* %3, align 4
  %62 = sext i32 %61 to i64
  %63 = getelementptr inbounds [300 x [5 x i8]], [300 x [5 x i8]]* %7, i64 0, i64 %62
  %64 = getelementptr inbounds [5 x i8], [5 x i8]* %63, i64 0, i64 0
  %65 = call i8* @strcpy(i8* %64, i8* getelementptr inbounds ([2 x i8], [2 x i8]* @.str.5, i64 0, i64 0)) #5
  br label %66

66:                                               ; preds = %60, %56
  %67 = load i8*, i8** %5, align 8
  %68 = call i32 @strcmp(i8* %67, i8* getelementptr inbounds ([2 x i8], [2 x i8]* @.str.5, i64 0, i64 0)) #4
  %69 = icmp eq i32 %68, 0
  br i1 %69, label %70, label %76

70:                                               ; preds = %66
  %71 = load i32, i32* %3, align 4
  %72 = sext i32 %71 to i64
  %73 = getelementptr inbounds [300 x [5 x i8]], [300 x [5 x i8]]* %7, i64 0, i64 %72
  %74 = getelementptr inbounds [5 x i8], [5 x i8]* %73, i64 0, i64 0
  %75 = call i8* @strcpy(i8* %74, i8* getelementptr inbounds ([2 x i8], [2 x i8]* @.str.4, i64 0, i64 0)) #5
  br label %76

76:                                               ; preds = %70, %66
  %77 = load i8*, i8** %5, align 8
  %78 = call i32 @strcmp(i8* %77, i8* getelementptr inbounds ([2 x i8], [2 x i8]* @.str.3, i64 0, i64 0)) #4
  %79 = icmp eq i32 %78, 0
  br i1 %79, label %80, label %86

80:                                               ; preds = %76
  %81 = load i32, i32* %3, align 4
  %82 = sext i32 %81 to i64
  %83 = getelementptr inbounds [300 x [5 x i8]], [300 x [5 x i8]]* %7, i64 0, i64 %82
  %84 = getelementptr inbounds [5 x i8], [5 x i8]* %83, i64 0, i64 0
  %85 = call i8* @strcpy(i8* %84, i8* getelementptr inbounds ([2 x i8], [2 x i8]* @.str.2, i64 0, i64 0)) #5
  br label %86

86:                                               ; preds = %80, %76
  %87 = load i8*, i8** %5, align 8
  %88 = call i8* @strcpy(i8* %87, i8* getelementptr inbounds ([2 x i8], [2 x i8]* @.str.6, i64 0, i64 0)) #5
  br label %89

89:                                               ; preds = %86
  %90 = load i32, i32* %3, align 4
  %91 = add nsw i32 %90, -1
  store i32 %91, i32* %3, align 4
  br label %36

92:                                               ; preds = %36
  store i32 0, i32* %3, align 4
  br label %93

93:                                               ; preds = %104, %92
  %94 = load i32, i32* %3, align 4
  %95 = load i32, i32* %4, align 4
  %96 = sub nsw i32 %95, 1
  %97 = icmp slt i32 %94, %96
  br i1 %97, label %98, label %107

98:                                               ; preds = %93
  %99 = load i32, i32* %3, align 4
  %100 = sext i32 %99 to i64
  %101 = getelementptr inbounds [300 x [5 x i8]], [300 x [5 x i8]]* %7, i64 0, i64 %100
  %102 = getelementptr inbounds [5 x i8], [5 x i8]* %101, i64 0, i64 0
  %103 = call i32 (i8*, ...) @printf(i8* getelementptr inbounds ([3 x i8], [3 x i8]* @.str.1, i64 0, i64 0), i8* %102)
  br label %104

104:                                              ; preds = %98
  %105 = load i32, i32* %3, align 4
  %106 = add nsw i32 %105, 1
  store i32 %106, i32* %3, align 4
  br label %93

107:                                              ; preds = %93
  %108 = load i32, i32* %4, align 4
  %109 = sub nsw i32 %108, 1
  %110 = sext i32 %109 to i64
  %111 = getelementptr inbounds [300 x [5 x i8]], [300 x [5 x i8]]* %7, i64 0, i64 %110
  %112 = getelementptr inbounds [5 x i8], [5 x i8]* %111, i64 0, i64 0
  %113 = call i32 (i8*, ...) @printf(i8* getelementptr inbounds ([4 x i8], [4 x i8]* @.str.7, i64 0, i64 0), i8* %112)
  br label %114

114:                                              ; preds = %107
  %115 = load i32, i32* %2, align 4
  %116 = add nsw i32 %115, 1
  store i32 %116, i32* %2, align 4
  br label %23

117:                                              ; preds = %23
  ret void
}

declare dso_local i32 @__isoc99_scanf(i8*, ...) #1

; Function Attrs: nounwind readonly
declare dso_local i64 @strlen(i8*) #2

; Function Attrs: nounwind readonly
declare dso_local i32 @strcmp(i8*, i8*) #2

; Function Attrs: nounwind
declare dso_local i8* @strcpy(i8*, i8*) #3

declare dso_local i32 @printf(i8*, ...) #1


!llvm.module.flags = !{!0}
!llvm.ident = !{!1}

!0 = !{i32 1, !"wchar_size", i32 4}
!1 = !{!"clang version 10.0.0-4ubuntu1 "}
